; ModuleID = '46/2509.c'
source_filename = "46/2509.c"
target datalayout = "e-m:e-p270:32:32-p271:32:32-p272:64:64-i64:64-f80:128-n8:16:32:64-S128"
target triple = "x86_64-pc-linux-gnu"

@.str = private unnamed_addr constant [5 x i8] c"%d%d\00", align 1
@.str.1 = private unnamed_addr constant [3 x i8] c"%d\00", align 1
@.str.2 = private unnamed_addr constant [4 x i8] c"%d\0A\00", align 1

; Function Attrs: noinline nounwind uwtable
define dso_local i32 @main() #0 {
  %1 = alloca i32, align 4
  %2 = alloca i32, align 4
  %3 = alloca i32, align 4
  %4 = alloca i32, align 4
  %5 = alloca i32, align 4
  %6 = alloca i32, align 4
  %7 = alloca i32, align 4
  %8 = alloca [110 x [110 x i32]], align 16
  store i32 0, i32* %1, align 4
  store i32 0, i32* %2, align 4
  br label %9

9:                                                ; preds = %27, %0
  %10 = load i32, i32* %2, align 4
  %11 = icmp slt i32 %10, 110
  br i1 %11, label %12, label %30

12:                                               ; preds = %9
  store i32 0, i32* %3, align 4
  br label %13

13:                                               ; preds = %23, %12
  %14 = load i32, i32* %3, align 4
  %15 = icmp slt i32 %14, 110
  br i1 %15, label %16, label %26

16:                                               ; preds = %13
  %17 = load i32, i32* %2, align 4
  %18 = sext i32 %17 to i64
  %19 = getelementptr inbounds [110 x [110 x i32]], [110 x [110 x i32]]* %8, i64 0, i64 %18
  %20 = load i32, i32* %3, align 4
  %21 = sext i32 %20 to i64
  %22 = getelementptr inbounds [110 x i32], [110 x i32]* %19, i64 0, i64 %21
  store i32 -1, i32* %22, align 4
  br label %23

23:                                               ; preds = %16
  %24 = load i32, i32* %3, align 4
  %25 = add nsw i32 %24, 1
  store i32 %25, i32* %3, align 4
  br label %13

26:                                               ; preds = %13
  br label %27

27:                                               ; preds = %26
  %28 = load i32, i32* %2, align 4
  %29 = add nsw i32 %28, 1
  store i32 %29, i32* %2, align 4
  br label %9

30:                                               ; preds = %9
  %31 = call i32 (i8*, ...) @__isoc99_scanf(i8* getelementptr inbounds ([5 x i8], [5 x i8]* @.str, i64 0, i64 0), i32* %4, i32* %5)
  store i32 1, i32* %2, align 4
  br label %32

32:                                               ; preds = %53, %30
  %33 = load i32, i32* %2, align 4
  %34 = load i32, i32* %4, align 4
  %35 = icmp sle i32 %33, %34
  br i1 %35, label %36, label %56

36:                                               ; preds = %32
  store i32 1, i32* %3, align 4
  br label %37

37:                                               ; preds = %49, %36
  %38 = load i32, i32* %3, align 4
  %39 = load i32, i32* %5, align 4
  %40 = icmp sle i32 %38, %39
  br i1 %40, label %41, label %52

41:                                               ; preds = %37
  %42 = load i32, i32* %2, align 4
  %43 = sext i32 %42 to i64
  %44 = getelementptr inbounds [110 x [110 x i32]], [110 x [110 x i32]]* %8, i64 0, i64 %43
  %45 = load i32, i32* %3, align 4
  %46 = sext i32 %45 to i64
  %47 = getelementptr inbounds [110 x i32], [110 x i32]* %44, i64 0, i64 %46
  %48 = call i32 (i8*, ...) @__isoc99_scanf(i8* getelementptr inbounds ([3 x i8], [3 x i8]* @.str.1, i64 0, i64 0), i32* %47)
  br label %49

49:                                               ; preds = %41
  %50 = load i32, i32* %3, align 4
  %51 = add nsw i32 %50, 1
  store i32 %51, i32* %3, align 4
  br label %37

52:                                               ; preds = %37
  br label %53

53:                                               ; preds = %52
  %54 = load i32, i32* %2, align 4
  %55 = add nsw i32 %54, 1
  store i32 %55, i32* %2, align 4
  br label %32

56:                                               ; preds = %32
  store i32 1, i32* %3, align 4
  store i32 1, i32* %2, align 4
  store i32 0, i32* %6, align 4
  store i32 1, i32* %7, align 4
  br label %57

57:                                               ; preds = %99, %56
  %58 = load i32, i32* %2, align 4
  %59 = sext i32 %58 to i64
  %60 = getelementptr inbounds [110 x [110 x i32]], [110 x [110 x i32]]* %8, i64 0, i64 %59
  %61 = load i32, i32* %3, align 4
  %62 = sext i32 %61 to i64
  %63 = getelementptr inbounds [110 x i32], [110 x i32]* %60, i64 0, i64 %62
  %64 = load i32, i32* %63, align 4
  %65 = icmp ne i32 %64, -1
  br i1 %65, label %66, label %106

66:                                               ; preds = %57
  %67 = load i32, i32* %2, align 4
  %68 = sext i32 %67 to i64
  %69 = getelementptr inbounds [110 x [110 x i32]], [110 x [110 x i32]]* %8, i64 0, i64 %68
  %70 = load i32, i32* %3, align 4
  %71 = sext i32 %70 to i64
  %72 = getelementptr inbounds [110 x i32], [110 x i32]* %69, i64 0, i64 %71
  %73 = load i32, i32* %72, align 4
  %74 = call i32 (i8*, ...) @printf(i8* getelementptr inbounds ([4 x i8], [4 x i8]* @.str.2, i64 0, i64 0), i32 %73)
  %75 = load i32, i32* %2, align 4
  %76 = sext i32 %75 to i64
  %77 = getelementptr inbounds [110 x [110 x i32]], [110 x [110 x i32]]* %8, i64 0, i64 %76
  %78 = load i32, i32* %3, align 4
  %79 = sext i32 %78 to i64
  %80 = getelementptr inbounds [110 x i32], [110 x i32]* %77, i64 0, i64 %79
  store i32 -1, i32* %80, align 4
  %81 = load i32, i32* %2, align 4
  %82 = load i32, i32* %6, align 4
  %83 = add nsw i32 %81, %82
  %84 = sext i32 %83 to i64
  %85 = getelementptr inbounds [110 x [110 x i32]], [110 x [110 x i32]]* %8, i64 0, i64 %84
  %86 = load i32, i32* %3, align 4
  %87 = load i32, i32* %7, align 4
  %88 = add nsw i32 %86, %87
  %89 = sext i32 %88 to i64
  %90 = getelementptr inbounds [110 x i32], [110 x i32]* %85, i64 0, i64 %89
  %91 = load i32, i32* %90, align 4
  %92 = icmp eq i32 %91, -1
  br i1 %92, label %93, label %98

93:                                               ; preds = %66
  %94 = load i32, i32* %7, align 4
  store i32 %94, i32* %4, align 4
  %95 = load i32, i32* %6, align 4
  %96 = sub nsw i32 0, %95
  store i32 %96, i32* %7, align 4
  %97 = load i32, i32* %4, align 4
  store i32 %97, i32* %6, align 4
  br label %98

98:                                               ; preds = %93, %66
  br label %99

99:                                               ; preds = %98
  %100 = load i32, i32* %6, align 4
  %101 = load i32, i32* %2, align 4
  %102 = add nsw i32 %101, %100
  store i32 %102, i32* %2, align 4
  %103 = load i32, i32* %7, align 4
  %104 = load i32, i32* %3, align 4
  %105 = add nsw i32 %104, %103
  store i32 %105, i32* %3, align 4
  br label %57

106:                                              ; preds = %57
  %107 = load i32, i32* %1, align 4
  ret i32 %107
}

declare dso_local i32 @__isoc99_scanf(i8*, ...) #1

declare dso_local i32 @printf(i8*, ...) #1


!llvm.module.flags = !{!0}
!llvm.ident = !{!1}

!0 = !{i32 1, !"wchar_size", i32 4}
!1 = !{!"clang version 10.0.0-4ubuntu1 "}
