; ModuleID = 'source-C-CXX/45/2509.c'
source_filename = "source-C-CXX/45/2509.c"
target datalayout = "e-m:e-p270:32:32-p271:32:32-p272:64:64-i64:64-f80:128-n8:16:32:64-S128"
target triple = "x86_64-pc-linux-gnu"

@.str = private unnamed_addr constant [5 x i8] c"%d%d\00", align 1
@.str.1 = private unnamed_addr constant [3 x i8] c"%d\00", align 1
@.str.2 = private unnamed_addr constant [4 x i8] c"%d\0A\00", align 1

; Function Attrs: nofree nounwind sspstrong uwtable
define dso_local i32 @main() local_unnamed_addr #0 {
  %1 = alloca i32, align 4
  %2 = alloca i32, align 4
  %3 = alloca [110 x [110 x i32]], align 16
  %4 = bitcast [110 x [110 x i32]]* %3 to i8*
  %5 = bitcast i32* %1 to i8*
  call void @llvm.lifetime.start.p0i8(i64 4, i8* nonnull %5) #4
  %6 = bitcast i32* %2 to i8*
  call void @llvm.lifetime.start.p0i8(i64 4, i8* nonnull %6) #4
  call void @llvm.lifetime.start.p0i8(i64 48400, i8* nonnull %4) #4
  call void @llvm.memset.p0i8.i64(i8* noundef nonnull align 16 dereferenceable(48400) %4, i8 -1, i64 48400, i1 false)
  %7 = call i32 (i8*, ...) @__isoc99_scanf(i8* getelementptr inbounds ([5 x i8], [5 x i8]* @.str, i64 0, i64 0), i32* nonnull %1, i32* nonnull %2)
  %8 = load i32, i32* %1, align 4, !tbaa !5
  %9 = icmp slt i32 %8, 1
  %10 = load i32, i32* %2, align 4
  %11 = icmp slt i32 %10, 1
  %12 = select i1 %9, i1 true, i1 %11
  br i1 %12, label %71, label %13

13:                                               ; preds = %0, %34
  %14 = phi i32 [ %35, %34 ], [ %8, %0 ]
  %15 = phi i32 [ %36, %34 ], [ %10, %0 ]
  %16 = phi i64 [ %37, %34 ], [ 1, %0 ]
  %17 = icmp slt i32 %15, 1
  br i1 %17, label %34, label %24

18:                                               ; preds = %34
  %19 = getelementptr inbounds [110 x [110 x i32]], [110 x [110 x i32]]* %3, i64 0, i64 1, i64 1
  %20 = load i32, i32* %19, align 4, !tbaa !5
  %21 = icmp eq i32 %20, -1
  br i1 %21, label %71, label %22

22:                                               ; preds = %18
  %23 = getelementptr inbounds [110 x [110 x i32]], [110 x [110 x i32]]* %3, i64 0, i64 1, i64 1
  br label %40

24:                                               ; preds = %13, %24
  %25 = phi i64 [ %28, %24 ], [ 1, %13 ]
  %26 = getelementptr inbounds [110 x [110 x i32]], [110 x [110 x i32]]* %3, i64 0, i64 %16, i64 %25
  %27 = call i32 (i8*, ...) @__isoc99_scanf(i8* getelementptr inbounds ([3 x i8], [3 x i8]* @.str.1, i64 0, i64 0), i32* nonnull %26)
  %28 = add nuw nsw i64 %25, 1
  %29 = load i32, i32* %2, align 4, !tbaa !5
  %30 = sext i32 %29 to i64
  %31 = icmp slt i64 %25, %30
  br i1 %31, label %24, label %32, !llvm.loop !9

32:                                               ; preds = %24
  %33 = load i32, i32* %1, align 4, !tbaa !5
  br label %34

34:                                               ; preds = %32, %13
  %35 = phi i32 [ %33, %32 ], [ %14, %13 ]
  %36 = phi i32 [ %29, %32 ], [ %15, %13 ]
  %37 = add nuw nsw i64 %16, 1
  %38 = sext i32 %35 to i64
  %39 = icmp slt i64 %16, %38
  br i1 %39, label %13, label %18, !llvm.loop !11

40:                                               ; preds = %22, %61
  %41 = phi i32 [ %69, %61 ], [ %20, %22 ]
  %42 = phi i32* [ %68, %61 ], [ %23, %22 ]
  %43 = phi i32 [ %67, %61 ], [ 1, %22 ]
  %44 = phi i32 [ %66, %61 ], [ 0, %22 ]
  %45 = phi i32 [ %64, %61 ], [ 1, %22 ]
  %46 = phi i32 [ %65, %61 ], [ 1, %22 ]
  %47 = call i32 (i8*, ...) @printf(i8* nonnull dereferenceable(1) getelementptr inbounds ([4 x i8], [4 x i8]* @.str.2, i64 0, i64 0), i32 %41)
  store i32 -1, i32* %42, align 4, !tbaa !5
  %48 = add nsw i32 %44, %46
  %49 = sext i32 %48 to i64
  %50 = add nsw i32 %43, %45
  %51 = sext i32 %50 to i64
  %52 = getelementptr inbounds [110 x [110 x i32]], [110 x [110 x i32]]* %3, i64 0, i64 %49, i64 %51
  %53 = load i32, i32* %52, align 4, !tbaa !5
  %54 = icmp eq i32 %53, -1
  br i1 %54, label %55, label %61

55:                                               ; preds = %40
  store i32 %43, i32* %1, align 4, !tbaa !5
  %56 = sub nsw i32 0, %44
  %57 = add nsw i32 %43, %46
  %58 = sub i32 %45, %44
  %59 = sext i32 %57 to i64
  %60 = sext i32 %58 to i64
  br label %61

61:                                               ; preds = %40, %55
  %62 = phi i64 [ %51, %40 ], [ %60, %55 ]
  %63 = phi i64 [ %49, %40 ], [ %59, %55 ]
  %64 = phi i32 [ %50, %40 ], [ %58, %55 ]
  %65 = phi i32 [ %48, %40 ], [ %57, %55 ]
  %66 = phi i32 [ %44, %40 ], [ %43, %55 ]
  %67 = phi i32 [ %43, %40 ], [ %56, %55 ]
  %68 = getelementptr inbounds [110 x [110 x i32]], [110 x [110 x i32]]* %3, i64 0, i64 %63, i64 %62
  %69 = load i32, i32* %68, align 4, !tbaa !5
  %70 = icmp eq i32 %69, -1
  br i1 %70, label %71, label %40, !llvm.loop !13

71:                                               ; preds = %61, %0, %18
  call void @llvm.lifetime.end.p0i8(i64 48400, i8* nonnull %4) #4
  call void @llvm.lifetime.end.p0i8(i64 4, i8* nonnull %6) #4
  call void @llvm.lifetime.end.p0i8(i64 4, i8* nonnull %5) #4
  ret i32 0
}

; Function Attrs: argmemonly mustprogress nofree nosync nounwind willreturn
declare void @llvm.lifetime.start.p0i8(i64 immarg, i8* nocapture) #1

; Function Attrs: nofree nounwind
declare noundef i32 @__isoc99_scanf(i8* nocapture noundef readonly, ...) local_unnamed_addr #2

; Function Attrs: nofree nounwind
declare noundef i32 @printf(i8* nocapture noundef readonly, ...) local_unnamed_addr #2

; Function Attrs: argmemonly mustprogress nofree nosync nounwind willreturn
declare void @llvm.lifetime.end.p0i8(i64 immarg, i8* nocapture) #1

; Function Attrs: argmemonly nofree nounwind willreturn writeonly
declare void @llvm.memset.p0i8.i64(i8* nocapture writeonly, i8, i64, i1 immarg) #3


!llvm.module.flags = !{!0, !1, !2, !3}
!llvm.ident = !{!4}

!0 = !{i32 1, !"wchar_size", i32 4}
!1 = !{i32 7, !"PIC Level", i32 2}
!2 = !{i32 7, !"PIE Level", i32 2}
!3 = !{i32 7, !"uwtable", i32 1}
!4 = !{!"clang version 13.0.0"}
!5 = !{!6, !6, i64 0}
!6 = !{!"int", !7, i64 0}
!7 = !{!"omnipotent char", !8, i64 0}
!8 = !{!"Simple C/C++ TBAA"}
!9 = distinct !{!9, !10}
!10 = !{!"llvm.loop.mustprogress"}
!11 = distinct !{!11, !10, !12}
!12 = !{!"llvm.loop.unswitch.partial.disable"}
!13 = distinct !{!13, !10}
